(dp1
S'output'
p2
S"<type 'exceptions.NameError'> name 'get_dateday' is not defined"
p3
sS'layer'
p4
S'/Applications/web2py.app/Contents/Resources/applications/insider/models/menu.py'
p5
sS'code'
p6
S"# -*- coding: utf-8 -*-\n# this file is released under public domain and you can use without limitations\n\n#########################################################################\n## Customize your APP title, subtitle and menus here\n#########################################################################\n\nresponse.logo = ''\nresponse.title = 'Investment Insider'\nresponse.subtitle = get_dateday(request.now)\n\n## read more at http://dev.w3.org/html5/markup/meta.name.html\nresponse.meta.author = 'Kevin Patrick Westropp <mail@kevinpatrickwestropp.com>'\nresponse.meta.description = 'Discuss investment stragies and become an insider.'\nresponse.meta.keywords = 'stock, investments, trading, opinions'\nresponse.meta.generator = 'Web2py Web Framework'\n\n## your http://google.com/analytics id\nresponse.google_analytics_id = None\n\n#########################################################################\n## this is the main application menu add/remove items as required\n#########################################################################\n\nresponse.menu = [\n    (T('Home'), False, URL('default', 'index'), [])\n]\n"
p7
sS'snapshot'
p8
(dp9
S'exception'
p10
(dp11
S'__hash__'
p12
S"<method-wrapper '__hash__' of exceptions.NameError object>"
p13
sS'__setattr__'
p14
S"<method-wrapper '__setattr__' of exceptions.NameError object>"
p15
sS'__reduce_ex__'
p16
S'<built-in method __reduce_ex__ of exceptions.NameError object>'
p17
sS'__getslice__'
p18
S"<method-wrapper '__getslice__' of exceptions.NameError object>"
p19
sS'__getitem__'
p20
S"<method-wrapper '__getitem__' of exceptions.NameError object>"
p21
sS'__setstate__'
p22
S'<built-in method __setstate__ of exceptions.NameError object>'
p23
sS'args'
p24
S'("name \'get_dateday\' is not defined",)'
p25
sS'__reduce__'
p26
S'<built-in method __reduce__ of exceptions.NameError object>'
p27
sS'__str__'
p28
S"<method-wrapper '__str__' of exceptions.NameError object>"
p29
sS'__format__'
p30
S'<built-in method __format__ of exceptions.NameError object>'
p31
sS'__getattribute__'
p32
S"<method-wrapper '__getattribute__' of exceptions.NameError object>"
p33
sS'__class__'
p34
S"<type 'exceptions.NameError'>"
p35
sS'__unicode__'
p36
S'<built-in method __unicode__ of exceptions.NameError object>'
p37
sS'__delattr__'
p38
S"<method-wrapper '__delattr__' of exceptions.NameError object>"
p39
sS'__subclasshook__'
p40
S'<built-in method __subclasshook__ of type object>'
p41
sS'__repr__'
p42
S"<method-wrapper '__repr__' of exceptions.NameError object>"
p43
sS'__dict__'
p44
S'{}'
p45
sS'__sizeof__'
p46
S'<built-in method __sizeof__ of exceptions.NameError object>'
p47
sS'__doc__'
p48
S"'Name not found globally.'"
p49
sS'__init__'
p50
S"<method-wrapper '__init__' of exceptions.NameError object>"
p51
sS'__new__'
p52
S'<built-in method __new__ of type object>'
p53
ssS'evalue'
p54
S"name 'get_dateday' is not defined"
p55
sS'request'
p56
cgluon.html
XML_unpickle
p57
(S's\x9a\xf0\x00\x00<div><table><tr><td style="font-weight:bold;vertical-align:top;">ajax</td><td style="vertical-align:top;">:</td><td><div>True</div></td></tr><tr><td style="font-weight:bold;vertical-align:top;">application</td><td style="vertical-align:top;">:</td><td><div>insider</div></td></tr><tr><td style="font-weight:bold;vertical-align:top;">args</td><td style="vertical-align:top;">:</td><td><div><table></table></div></td></tr><tr><td style="font-weight:bold;vertical-align:top;">cid</td><td style="vertical-align:top;">:</td><td><div>c348553846778</div></td></tr><tr><td style="font-weight:bold;vertical-align:top;">client</td><td style="vertical-align:top;">:</td><td><div>127.0.0.1</div></td></tr><tr><td style="font-weight:bold;vertical-align:top;">controller</td><td style="vertical-align:top;">:</td><td><div>default</div></td></tr><tr><td style="font-weight:bold;vertical-align:top;">cookies</td><td style="vertical-align:top;">:</td><td><div><table><tr><td style="font-weight:bold;vertical-align:top;">PLAY_SESSION</td><td style="vertical-align:top;">:</td><td><div>e9eea4411145e620928d6360d279b213f5bff29b-csrfToken=028f93c314a98051f6ae6ce61beae4ec1167c3d6-1397113436997-a999d2046b7b47f3665251c6<table><tr><td style="font-weight:bold;vertical-align:top;">comment</td><td style="vertical-align:top;">:</td><td><div></div></td></tr><tr><td style="font-weight:bold;vertical-align:top;">domain</td><td style="vertical-align:top;">:</td><td><div></div></td></tr><tr><td style="font-weight:bold;vertical-align:top;">expires</td><td style="vertical-align:top;">:</td><td><div></div></td></tr><tr><td style="font-weight:bold;vertical-align:top;">httponly</td><td style="vertical-align:top;">:</td><td><div></div></td></tr><tr><td style="font-weight:bold;vertical-align:top;">max-age</td><td style="vertical-align:top;">:</td><td><div></div></td></tr><tr><td style="font-weight:bold;vertical-align:top;">path</td><td style="vertical-align:top;">:</td><td><div></div></td></tr><tr><td style="font-weight:bold;vertical-align:top;">secure</td><td style="vertical-align:top;">:</td><td><div></div></td></tr><tr><td style="font-weight:bold;vertical-align:top;">version</td><td style="vertical-align:top;">:</td><td><div></div></td></tr></table></div></td></tr><tr><td style="font-weight:bold;vertical-align:top;">session_id_admin</td><td style="vertical-align:top;">:</td><td><div>127.0.0.1-8c7ec2bd-2918-4ae2-bfb6-bb64665223e6<table><tr><td style="font-weight:bold;vertical-align:top;">comment</td><td style="vertical-align:top;">:</td><td><div></div></td></tr><tr><td style="font-weight:bold;vertical-align:top;">domain</td><td style="vertical-align:top;">:</td><td><div></div></td></tr><tr><td style="font-weight:bold;vertical-align:top;">expires</td><td style="vertical-align:top;">:</td><td><div></div></td></tr><tr><td style="font-weight:bold;vertical-align:top;">httponly</td><td style="vertical-align:top;">:</td><td><div></div></td></tr><tr><td style="font-weight:bold;vertical-align:top;">max-age</td><td style="vertical-align:top;">:</td><td><div></div></td></tr><tr><td style="font-weight:bold;vertical-align:top;">path</td><td style="vertical-align:top;">:</td><td><div></div></td></tr><tr><td style="font-weight:bold;vertical-align:top;">secure</td><td style="vertical-align:top;">:</td><td><div></div></td></tr><tr><td style="font-weight:bold;vertical-align:top;">version</td><td style="vertical-align:top;">:</td><td><div></div></td></tr></table></div></td></tr><tr><td style="font-weight:bold;vertical-align:top;">session_id_ajaxupload</td><td style="vertical-align:top;">:</td><td><div>127.0.0.1-74e61eb0-9e75-4b95-a6ab-831ebdeea811<table><tr><td style="font-weight:bold;vertical-align:top;">comment</td><td style="vertical-align:top;">:</td><td><div></div></td></tr><tr><td style="font-weight:bold;vertical-align:top;">domain</td><td style="vertical-align:top;">:</td><td><div></div></td></tr><tr><td style="font-weight:bold;vertical-align:top;">expires</td><td style="vertical-align:top;">:</td><td><div></div></td></tr><tr><td style="font-weight:bold;vertical-align:top;">httponly</td><td style="vertical-align:top;">:</td><td><div></div></td></tr><tr><td style="font-weight:bold;vertical-align:top;">max-age</td><td style="vertical-align:top;">:</td><td><div></div></td></tr><tr><td style="font-weight:bold;vertical-align:top;">path</td><td style="vertical-align:top;">:</td><td><div></div></td></tr><tr><td style="font-weight:bold;vertical-align:top;">secure</td><td style="vertical-align:top;">:</td><td><div></div></td></tr><tr><td style="font-weight:bold;vertical-align:top;">version</td><td style="vertical-align:top;">:</td><td><div></div></td></tr></table></div></td></tr><tr><td style="font-weight:bold;vertical-align:top;">session_id_appengine</td><td style="vertical-align:top;">:</td><td><div>127.0.0.1-d9f0bc65-6c98-4913-b617-c7db572b3174<table><tr><td style="font-weight:bold;vertical-align:top;">comment</td><td style="vertical-align:top;">:</td><td><div></div></td></tr><tr><td style="font-weight:bold;vertical-align:top;">domain</td><td style="vertical-align:top;">:</td><td><div></div></td></tr><tr><td style="font-weight:bold;vertical-align:top;">expires</td><td style="vertical-align:top;">:</td><td><div></div></td></tr><tr><td style="font-weight:bold;vertical-align:top;">httponly</td><td style="vertical-align:top;">:</td><td><div></div></td></tr><tr><td style="font-weight:bold;vertical-align:top;">max-age</td><td style="vertical-align:top;">:</td><td><div></div></td></tr><tr><td style="font-weight:bold;vertical-align:top;">path</td><td style="vertical-align:top;">:</td><td><div></div></td></tr><tr><td style="font-weight:bold;vertical-align:top;">secure</td><td style="vertical-align:top;">:</td><td><div></div></td></tr><tr><td style="font-weight:bold;vertical-align:top;">version</td><td style="vertical-align:top;">:</td><td><div></div></td></tr></table></div></td></tr><tr><td style="font-weight:bold;vertical-align:top;">session_id_assignment_review_1_1</td><td style="vertical-align:top;">:</td><td><div>127.0.0.1-3282d5fa-1a99-42fc-b851-eca4ce9364d8<table><tr><td style="font-weight:bold;vertical-align:top;">comment</td><td style="vertical-align:top;">:</td><td><div></div></td></tr><tr><td style="font-weight:bold;vertical-align:top;">domain</td><td style="vertical-align:top;">:</td><td><div></div></td></tr><tr><td style="font-weight:bold;vertical-align:top;">expires</td><td style="vertical-align:top;">:</td><td><div></div></td></tr><tr><td style="font-weight:bold;vertical-align:top;">httponly</td><td style="vertical-align:top;">:</td><td><div></div></td></tr><tr><td style="font-weight:bold;vertical-align:top;">max-age</td><td style="vertical-align:top;">:</td><td><div></div></td></tr><tr><td style="font-weight:bold;vertical-align:top;">path</td><td style="vertical-align:top;">:</td><td><div></div></td></tr><tr><td style="font-weight:bold;vertical-align:top;">secure</td><td style="vertical-align:top;">:</td><td><div></div></td></tr><tr><td style="font-weight:bold;vertical-align:top;">version</td><td style="vertical-align:top;">:</td><td><div></div></td></tr></table></div></td></tr><tr><td style="font-weight:bold;vertical-align:top;">session_id_assignment_review_1_2</td><td style="vertical-align:top;">:</td><td><div>127.0.0.1-96bbada8-5e2d-432c-8e51-411ca152d1f6<table><tr><td style="font-weight:bold;vertical-align:top;">comment</td><td style="vertical-align:top;">:</td><td><div></div></td></tr><tr><td style="font-weight:bold;vertical-align:top;">domain</td><td style="vertical-align:top;">:</td><td><div></div></td></tr><tr><td style="font-weight:bold;vertical-align:top;">expires</td><td style="vertical-align:top;">:</td><td><div></div></td></tr><tr><td style="font-weight:bold;vertical-align:top;">httponly</td><td style="vertical-align:top;">:</td><td><div></div></td></tr><tr><td style="font-weight:bold;vertical-align:top;">max-age</td><td style="vertical-align:top;">:</td><td><div></div></td></tr><tr><td style="font-weight:bold;vertical-align:top;">path</td><td style="vertical-align:top;">:</td><td><div></div></td></tr><tr><td style="font-weight:bold;vertical-align:top;">secure</td><td style="vertical-align:top;">:</td><td><div></div></td></tr><tr><td style="font-weight:bold;vertical-align:top;">version</td><td style="vertical-align:top;">:</td><td><div></div></td></tr></table></div></td></tr><tr><td style="font-weight:bold;vertical-align:top;">session_id_assignment_review_1_3</td><td style="vertical-align:top;">:</td><td><div>127.0.0.1-3184b62e-b28d-4ed1-bc6e-377e1fc4f19e<table><tr><td style="font-weight:bold;vertical-align:top;">comment</td><td style="vertical-align:top;">:</td><td><div></div></td></tr><tr><td style="font-weight:bold;vertical-align:top;">domain</td><td style="vertical-align:top;">:</td><td><div></div></td></tr><tr><td style="font-weight:bold;vertical-align:top;">expires</td><td style="vertical-align:top;">:</td><td><div></div></td></tr><tr><td style="font-weight:bold;vertical-align:top;">httponly</td><td style="vertical-align:top;">:</td><td><div></div></td></tr><tr><td style="font-weight:bold;vertical-align:top;">max-age</td><td style="vertical-align:top;">:</td><td><div></div></td></tr><tr><td style="font-weight:bold;vertical-align:top;">path</td><td style="vertical-align:top;">:</td><td><div></div></td></tr><tr><td style="font-weight:bold;vertical-align:top;">secure</td><td style="vertical-align:top;">:</td><td><div></div></td></tr><tr><td style="font-weight:bold;vertical-align:top;">version</td><td style="vertical-align:top;">:</td><td><div></div></td></tr></table></div></td></tr><tr><td style="font-weight:bold;vertical-align:top;">session_id_assignment_review_1_4</td><td style="vertical-align:top;">:</td><td><div>127.0.0.1-9919f5ba-8cbe-40a6-956b-12cb9a4764cd<table><tr><td style="font-weight:bold;vertical-align:top;">comment</td><td style="vertical-align:top;">:</td><td><div></div></td></tr><tr><td style="font-weight:bold;vertical-align:top;">domain</td><td style="vertical-align:top;">:</td><td><div></div></td></tr><tr><td style="font-weight:bold;vertical-align:top;">expires</td><td style="vertical-align:top;">:</td><td><div></div></td></tr><tr><td style="font-weight:bold;vertical-align:top;">httponly</td><td style="vertical-align:top;">:</td><td><div></div></td></tr><tr><td style="font-weight:bold;vertical-align:top;">max-age</td><td style="vertical-align:top;">:</td><td><div></div></td></tr><tr><td style="font-weight:bold;vertical-align:top;">path</td><td style="vertical-align:top;">:</td><td><div></div></td></tr><tr><td style="font-weight:bold;vertical-align:top;">secure</td><td style="vertical-align:top;">:</td><td><div></div></td></tr><tr><td style="font-weight:bold;vertical-align:top;">version</td><td style="vertical-align:top;">:</td><td><div></div></td></tr></table></div></td></tr><tr><td style="font-weight:bold;vertical-align:top;">session_id_assignment_review_1_5</td><td style="vertical-align:top;">:</td><td><div>127.0.0.1-b4c2bf39-51be-4691-946a-62aa2a3d186a<table><tr><td style="font-weight:bold;vertical-align:top;">comment</td><td style="vertical-align:top;">:</td><td><div></div></td></tr><tr><td style="font-weight:bold;vertical-align:top;">domain</td><td style="vertical-align:top;">:</td><td><div></div></td></tr><tr><td style="font-weight:bold;vertical-align:top;">expires</td><td style="vertical-align:top;">:</td><td><div></div></td></tr><tr><td style="font-weight:bold;vertical-align:top;">httponly</td><td style="vertical-align:top;">:</td><td><div></div></td></tr><tr><td style="font-weight:bold;vertical-align:top;">max-age</td><td style="vertical-align:top;">:</td><td><div></div></td></tr><tr><td style="font-weight:bold;vertical-align:top;">path</td><td style="vertical-align:top;">:</td><td><div></div></td></tr><tr><td style="font-weight:bold;vertical-align:top;">secure</td><td style="vertical-align:top;">:</td><td><div></div></td></tr><tr><td style="font-weight:bold;vertical-align:top;">version</td><td style="vertical-align:top;">:</td><td><div></div></td></tr></table></div></td></tr><tr><td style="font-weight:bold;vertical-align:top;">session_id_envision</td><td style="vertical-align:top;">:</td><td><div>127.0.0.1-7d4161ad-e692-4559-b69f-f66709f02ecc<table><tr><td style="font-weight:bold;vertical-align:top;">comment</td><td style="vertical-align:top;">:</td><td><div></div></td></tr><tr><td style="font-weight:bold;vertical-align:top;">domain</td><td style="vertical-align:top;">:</td><td><div></div></td></tr><tr><td style="font-weight:bold;vertical-align:top;">expires</td><td style="vertical-align:top;">:</td><td><div></div></td></tr><tr><td style="font-weight:bold;vertical-align:top;">httponly</td><td style="vertical-align:top;">:</td><td><div></div></td></tr><tr><td style="font-weight:bold;vertical-align:top;">max-age</td><td style="vertical-align:top;">:</td><td><div></div></td></tr><tr><td style="font-weight:bold;vertical-align:top;">path</td><td style="vertical-align:top;">:</td><td><div></div></td></tr><tr><td style="font-weight:bold;vertical-align:top;">secure</td><td style="vertical-align:top;">:</td><td><div></div></td></tr><tr><td style="font-weight:bold;vertical-align:top;">version</td><td style="vertical-align:top;">:</td><td><div></div></td></tr></table></div></td></tr><tr><td style="font-weight:bold;vertical-align:top;">session_id_eve</td><td style="vertical-align:top;">:</td><td><div>127.0.0.1-da3d065a-4e9b-436e-a7fe-5a71ee4a3164<table><tr><td style="font-weight:bold;vertical-align:top;">comment</td><td style="vertical-align:top;">:</td><td><div></div></td></tr><tr><td style="font-weight:bold;vertical-align:top;">domain</td><td style="vertical-align:top;">:</td><td><div></div></td></tr><tr><td style="font-weight:bold;vertical-align:top;">expires</td><td style="vertical-align:top;">:</td><td><div></div></td></tr><tr><td style="font-weight:bold;vertical-align:top;">httponly</td><td style="vertical-align:top;">:</td><td><div></div></td></tr><tr><td style="font-weight:bold;vertical-align:top;">max-age</td><td style="vertical-align:top;">:</td><td><div></div></td></tr><tr><td style="font-weight:bold;vertical-align:top;">path</td><td style="vertical-align:top;">:</td><td><div></div></td></tr><tr><td style="font-weight:bold;vertical-align:top;">secure</td><td style="vertical-align:top;">:</td><td><div></div></td></tr><tr><td style="font-weight:bold;vertical-align:top;">version</td><td style="vertical-align:top;">:</td><td><div></div></td></tr></table></div></td></tr><tr><td style="font-weight:bold;vertical-align:top;">session_id_examples</td><td style="vertical-align:top;">:</td><td><div>True<table><tr><td style="font-weight:bold;vertical-align:top;">comment</td><td style="vertical-align:top;">:</td><td><div></div></td></tr><tr><td style="font-weight:bold;vertical-align:top;">domain</td><td style="vertical-align:top;">:</td><td><div></div></td></tr><tr><td style="font-weight:bold;vertical-align:top;">expires</td><td style="vertical-align:top;">:</td><td><div></div></td></tr><tr><td style="font-weight:bold;vertical-align:top;">httponly</td><td style="vertical-align:top;">:</td><td><div></div></td></tr><tr><td style="font-weight:bold;vertical-align:top;">max-age</td><td style="vertical-align:top;">:</td><td><div></div></td></tr><tr><td style="font-weight:bold;vertical-align:top;">path</td><td style="vertical-align:top;">:</td><td><div></div></td></tr><tr><td style="font-weight:bold;vertical-align:top;">secure</td><td style="vertical-align:top;">:</td><td><div></div></td></tr><tr><td style="font-weight:bold;vertical-align:top;">version</td><td style="vertical-align:top;">:</td><td><div></div></td></tr></table></div></td></tr><tr><td style="font-weight:bold;vertical-align:top;">session_id_file_share</td><td style="vertical-align:top;">:</td><td><div>127.0.0.1-c022a42d-55af-4bfa-8375-ab5e74d96229<table><tr><td style="font-weight:bold;vertical-align:top;">comment</td><td style="vertical-align:top;">:</td><td><div></div></td></tr><tr><td style="font-weight:bold;vertical-align:top;">domain</td><td style="vertical-align:top;">:</td><td><div></div></td></tr><tr><td style="font-weight:bold;vertical-align:top;">expires</td><td style="vertical-align:top;">:</td><td><div></div></td></tr><tr><td style="font-weight:bold;vertical-align:top;">httponly</td><td style="vertical-align:top;">:</td><td><div></div></td></tr><tr><td style="font-weight:bold;vertical-align:top;">max-age</td><td style="vertical-align:top;">:</td><td><div></div></td></tr><tr><td style="font-weight:bold;vertical-align:top;">path</td><td style="vertical-align:top;">:</td><td><div></div></td></tr><tr><td style="font-weight:bold;vertical-align:top;">secure</td><td style="vertical-align:top;">:</td><td><div></div></td></tr><tr><td style="font-weight:bold;vertical-align:top;">version</td><td style="vertical-align:top;">:</td><td><div></div></td></tr></table></div></td></tr><tr><td style="font-weight:bold;vertical-align:top;">session_id_highlanderkev</td><td style="vertical-align:top;">:</td><td><div>127.0.0.1-477a5837-967f-4984-a919-e768fdfda84a<table><tr><td style="font-weight:bold;vertical-align:top;">comment</td><td style="vertical-align:top;">:</td><td><div></div></td></tr><tr><td style="font-weight:bold;vertical-align:top;">domain</td><td style="vertical-align:top;">:</td><td><div></div></td></tr><tr><td style="font-weight:bold;vertical-align:top;">expires</td><td style="vertical-align:top;">:</td><td><div></div></td></tr><tr><td style="font-weight:bold;vertical-align:top;">httponly</td><td style="vertical-align:top;">:</td><td><div></div></td></tr><tr><td style="font-weight:bold;vertical-align:top;">max-age</td><td style="vertical-align:top;">:</td><td><div></div></td></tr><tr><td style="font-weight:bold;vertical-align:top;">path</td><td style="vertical-align:top;">:</td><td><div></div></td></tr><tr><td style="font-weight:bold;vertical-align:top;">secure</td><td style="vertical-align:top;">:</td><td><div></div></td></tr><tr><td style="font-weight:bold;vertical-align:top;">version</td><td style="vertical-align:top;">:</td><td><div></div></td></tr></table></div></td></tr><tr><td style="font-weight:bold;vertical-align:top;">session_id_insider</td><td style="vertical-align:top;">:</td><td><div>127.0.0.1-d4500e52-711c-4c23-8e2b-9d0cfda5e93d<table><tr><td style="font-weight:bold;vertical-align:top;">comment</td><td style="vertical-align:top;">:</td><td><div></div></td></tr><tr><td style="font-weight:bold;vertical-align:top;">domain</td><td style="vertical-align:top;">:</td><td><div></div></td></tr><tr><td style="font-weight:bold;vertical-align:top;">expires</td><td style="vertical-align:top;">:</td><td><div></div></td></tr><tr><td style="font-weight:bold;vertical-align:top;">httponly</td><td style="vertical-align:top;">:</td><td><div></div></td></tr><tr><td style="font-weight:bold;vertical-align:top;">max-age</td><td style="vertical-align:top;">:</td><td><div></div></td></tr><tr><td style="font-weight:bold;vertical-align:top;">path</td><td style="vertical-align:top;">:</td><td><div></div></td></tr><tr><td style="font-weight:bold;vertical-align:top;">secure</td><td style="vertical-align:top;">:</td><td><div></div></td></tr><tr><td style="font-weight:bold;vertical-align:top;">version</td><td style="vertical-align:top;">:</td><td><div></div></td></tr></table></div></td></tr><tr><td style="font-weight:bold;vertical-align:top;">session_id_interactive</td><td style="vertical-align:top;">:</td><td><div>127.0.0.1-2265edd2-e0f0-4b2b-a6a8-1785f0fb6b49<table><tr><td style="font-weight:bold;vertical-align:top;">comment</td><td style="vertical-align:top;">:</td><td><div></div></td></tr><tr><td style="font-weight:bold;vertical-align:top;">domain</td><td style="vertical-align:top;">:</td><td><div></div></td></tr><tr><td style="font-weight:bold;vertical-align:top;">expires</td><td style="vertical-align:top;">:</td><td><div></div></td></tr><tr><td style="font-weight:bold;vertical-align:top;">httponly</td><td style="vertical-align:top;">:</td><td><div></div></td></tr><tr><td style="font-weight:bold;vertical-align:top;">max-age</td><td style="vertical-align:top;">:</td><td><div></div></td></tr><tr><td style="font-weight:bold;vertical-align:top;">path</td><td style="vertical-align:top;">:</td><td><div></div></td></tr><tr><td style="font-weight:bold;vertical-align:top;">secure</td><td style="vertical-align:top;">:</td><td><div></div></td></tr><tr><td style="font-weight:bold;vertical-align:top;">version</td><td style="vertical-align:top;">:</td><td><div></div></td></tr></table></div></td></tr><tr><td style="font-weight:bold;vertical-align:top;">session_id_kpworg</td><td style="vertical-align:top;">:</td><td><div>127.0.0.1-3017bc17-4b0f-45be-8800-32e0dd93c1db<table><tr><td style="font-weight:bold;vertical-align:top;">comment</td><td style="vertical-align:top;">:</td><td><div></div></td></tr><tr><td style="font-weight:bold;vertical-align:top;">domain</td><td style="vertical-align:top;">:</td><td><div></div></td></tr><tr><td style="font-weight:bold;vertical-align:top;">expires</td><td style="vertical-align:top;">:</td><td><div></div></td></tr><tr><td style="font-weight:bold;vertical-align:top;">httponly</td><td style="vertical-align:top;">:</td><td><div></div></td></tr><tr><td style="font-weight:bold;vertical-align:top;">max-age</td><td style="vertical-align:top;">:</td><td><div></div></td></tr><tr><td style="font-weight:bold;vertical-align:top;">path</td><td style="vertical-align:top;">:</td><td><div></div></td></tr><tr><td style="font-weight:bold;vertical-align:top;">secure</td><td style="vertical-align:top;">:</td><td><div></div></td></tr><tr><td style="font-weight:bold;vertical-align:top;">version</td><td style="vertical-align:top;">:</td><td><div></div></td></tr></table></div></td></tr><tr><td style="font-weight:bold;vertical-align:top;">session_id_lists</td><td style="vertical-align:top;">:</td><td><div>127.0.0.1-98897ab7-1f70-416f-84a8-f86c7e62cf9f<table><tr><td style="font-weight:bold;vertical-align:top;">comment</td><td style="vertical-align:top;">:</td><td><div></div></td></tr><tr><td style="font-weight:bold;vertical-align:top;">domain</td><td style="vertical-align:top;">:</td><td><div></div></td></tr><tr><td style="font-weight:bold;vertical-align:top;">expires</td><td style="vertical-align:top;">:</td><td><div></div></td></tr><tr><td style="font-weight:bold;vertical-align:top;">httponly</td><td style="vertical-align:top;">:</td><td><div></div></td></tr><tr><td style="font-weight:bold;vertical-align:top;">max-age</td><td style="vertical-align:top;">:</td><td><div></div></td></tr><tr><td style="font-weight:bold;vertical-align:top;">path</td><td style="vertical-align:top;">:</td><td><div></div></td></tr><tr><td style="font-weight:bold;vertical-align:top;">secure</td><td style="vertical-align:top;">:</td><td><div></div></td></tr><tr><td style="font-weight:bold;vertical-align:top;">version</td><td style="vertical-align:top;">:</td><td><div></div></td></tr></table></div></td></tr><tr><td style="font-weight:bold;vertical-align:top;">session_id_machine_learning_virus_classify</td><td style="vertical-align:top;">:</td><td><div>127.0.0.1-f09eab9f-d600-4359-8b53-035a9666216f<table><tr><td style="font-weight:bold;vertical-align:top;">comment</td><td style="vertical-align:top;">:</td><td><div></div></td></tr><tr><td style="font-weight:bold;vertical-align:top;">domain</td><td style="vertical-align:top;">:</td><td><div></div></td></tr><tr><td style="font-weight:bold;vertical-align:top;">expires</td><td style="vertical-align:top;">:</td><td><div></div></td></tr><tr><td style="font-weight:bold;vertical-align:top;">httponly</td><td style="vertical-align:top;">:</td><td><div></div></td></tr><tr><td style="font-weight:bold;vertical-align:top;">max-age</td><td style="vertical-align:top;">:</td><td><div></div></td></tr><tr><td style="font-weight:bold;vertical-align:top;">path</td><td style="vertical-align:top;">:</td><td><div></div></td></tr><tr><td style="font-weight:bold;vertical-align:top;">secure</td><td style="vertical-align:top;">:</td><td><div></div></td></tr><tr><td style="font-weight:bold;vertical-align:top;">version</td><td style="vertical-align:top;">:</td><td><div></div></td></tr></table></div></td></tr><tr><td style="font-weight:bold;vertical-align:top;">session_id_project_org</td><td style="vertical-align:top;">:</td><td><div>127.0.0.1-051f5fa6-ef1f-4f95-b8b9-0b9b7356c490<table><tr><td style="font-weight:bold;vertical-align:top;">comment</td><td style="vertical-align:top;">:</td><td><div></div></td></tr><tr><td style="font-weight:bold;vertical-align:top;">domain</td><td style="vertical-align:top;">:</td><td><div></div></td></tr><tr><td style="font-weight:bold;vertical-align:top;">expires</td><td style="vertical-align:top;">:</td><td><div></div></td></tr><tr><td style="font-weight:bold;vertical-align:top;">httponly</td><td style="vertical-align:top;">:</td><td><div></div></td></tr><tr><td style="font-weight:bold;vertical-align:top;">max-age</td><td style="vertical-align:top;">:</td><td><div></div></td></tr><tr><td style="font-weight:bold;vertical-align:top;">path</td><td style="vertical-align:top;">:</td><td><div></div></td></tr><tr><td style="font-weight:bold;vertical-align:top;">secure</td><td style="vertical-align:top;">:</td><td><div></div></td></tr><tr><td style="font-weight:bold;vertical-align:top;">version</td><td style="vertical-align:top;">:</td><td><div></div></td></tr></table></div></td></tr><tr><td style="font-weight:bold;vertical-align:top;">session_id_search</td><td style="vertical-align:top;">:</td><td><div>127.0.0.1-d6921a62-1229-4ec9-b617-a2ebdbd9d7c7<table><tr><td style="font-weight:bold;vertical-align:top;">comment</td><td style="vertical-align:top;">:</td><td><div></div></td></tr><tr><td style="font-weight:bold;vertical-align:top;">domain</td><td style="vertical-align:top;">:</td><td><div></div></td></tr><tr><td style="font-weight:bold;vertical-align:top;">expires</td><td style="vertical-align:top;">:</td><td><div></div></td></tr><tr><td style="font-weight:bold;vertical-align:top;">httponly</td><td style="vertical-align:top;">:</td><td><div></div></td></tr><tr><td style="font-weight:bold;vertical-align:top;">max-age</td><td style="vertical-align:top;">:</td><td><div></div></td></tr><tr><td style="font-weight:bold;vertical-align:top;">path</td><td style="vertical-align:top;">:</td><td><div></div></td></tr><tr><td style="font-weight:bold;vertical-align:top;">secure</td><td style="vertical-align:top;">:</td><td><div></div></td></tr><tr><td style="font-weight:bold;vertical-align:top;">version</td><td style="vertical-align:top;">:</td><td><div></div></td></tr></table></div></td></tr><tr><td style="font-weight:bold;vertical-align:top;">session_id_template</td><td style="vertical-align:top;">:</td><td><div>127.0.0.1-c530a364-afbc-47cd-bfce-ea6e88a562b3<table><tr><td style="font-weight:bold;vertical-align:top;">comment</td><td style="vertical-align:top;">:</td><td><div></div></td></tr><tr><td style="font-weight:bold;vertical-align:top;">domain</td><td style="vertical-align:top;">:</td><td><div></div></td></tr><tr><td style="font-weight:bold;vertical-align:top;">expires</td><td style="vertical-align:top;">:</td><td><div></div></td></tr><tr><td style="font-weight:bold;vertical-align:top;">httponly</td><td style="vertical-align:top;">:</td><td><div></div></td></tr><tr><td style="font-weight:bold;vertical-align:top;">max-age</td><td style="vertical-align:top;">:</td><td><div></div></td></tr><tr><td style="font-weight:bold;vertical-align:top;">path</td><td style="vertical-align:top;">:</td><td><div></div></td></tr><tr><td style="font-weight:bold;vertical-align:top;">secure</td><td style="vertical-align:top;">:</td><td><div></div></td></tr><tr><td style="font-weight:bold;vertical-align:top;">version</td><td style="vertical-align:top;">:</td><td><div></div></td></tr></table></div></td></tr><tr><td style="font-weight:bold;vertical-align:top;">session_id_tracker</td><td style="vertical-align:top;">:</td><td><div>127.0.0.1-65738045-4987-478d-a74a-83d6ed13a0aa<table><tr><td style="font-weight:bold;vertical-align:top;">comment</td><td style="vertical-align:top;">:</td><td><div></div></td></tr><tr><td style="font-weight:bold;vertical-align:top;">domain</td><td style="vertical-align:top;">:</td><td><div></div></td></tr><tr><td style="font-weight:bold;vertical-align:top;">expires</td><td style="vertical-align:top;">:</td><td><div></div></td></tr><tr><td style="font-weight:bold;vertical-align:top;">httponly</td><td style="vertical-align:top;">:</td><td><div></div></td></tr><tr><td style="font-weight:bold;vertical-align:top;">max-age</td><td style="vertical-align:top;">:</td><td><div></div></td></tr><tr><td style="font-weight:bold;vertical-align:top;">path</td><td style="vertical-align:top;">:</td><td><div></div></td></tr><tr><td style="font-weight:bold;vertical-align:top;">secure</td><td style="vertical-align:top;">:</td><td><div></div></td></tr><tr><td style="font-weight:bold;vertical-align:top;">version</td><td style="vertical-align:top;">:</td><td><div></div></td></tr></table></div></td></tr><tr><td style="font-weight:bold;vertical-align:top;">session_id_trackerclient</td><td style="vertical-align:top;">:</td><td><div>127.0.0.1-4cc12dea-b038-4bfe-89e7-a5028b300bb8<table><tr><td style="font-weight:bold;vertical-align:top;">comment</td><td style="vertical-align:top;">:</td><td><div></div></td></tr><tr><td style="font-weight:bold;vertical-align:top;">domain</td><td style="vertical-align:top;">:</td><td><div></div></td></tr><tr><td style="font-weight:bold;vertical-align:top;">expires</td><td style="vertical-align:top;">:</td><td><div></div></td></tr><tr><td style="font-weight:bold;vertical-align:top;">httponly</td><td style="vertical-align:top;">:</td><td><div></div></td></tr><tr><td style="font-weight:bold;vertical-align:top;">max-age</td><td style="vertical-align:top;">:</td><td><div></div></td></tr><tr><td style="font-weight:bold;vertical-align:top;">path</td><td style="vertical-align:top;">:</td><td><div></div></td></tr><tr><td style="font-weight:bold;vertical-align:top;">secure</td><td style="vertical-align:top;">:</td><td><div></div></td></tr><tr><td style="font-weight:bold;vertical-align:top;">version</td><td style="vertical-align:top;">:</td><td><div></div></td></tr></table></div></td></tr><tr><td style="font-weight:bold;vertical-align:top;">session_id_trackertests</td><td style="vertical-align:top;">:</td><td><div>127.0.0.1-e34ce045-9597-4f58-a323-09f0cb874657<table><tr><td style="font-weight:bold;vertical-align:top;">comment</td><td style="vertical-align:top;">:</td><td><div></div></td></tr><tr><td style="font-weight:bold;vertical-align:top;">domain</td><td style="vertical-align:top;">:</td><td><div></div></td></tr><tr><td style="font-weight:bold;vertical-align:top;">expires</td><td style="vertical-align:top;">:</td><td><div></div></td></tr><tr><td style="font-weight:bold;vertical-align:top;">httponly</td><td style="vertical-align:top;">:</td><td><div></div></td></tr><tr><td style="font-weight:bold;vertical-align:top;">max-age</td><td style="vertical-align:top;">:</td><td><div></div></td></tr><tr><td style="font-weight:bold;vertical-align:top;">path</td><td style="vertical-align:top;">:</td><td><div></div></td></tr><tr><td style="font-weight:bold;vertical-align:top;">secure</td><td style="vertical-align:top;">:</td><td><div></div></td></tr><tr><td style="font-weight:bold;vertical-align:top;">version</td><td style="vertical-align:top;">:</td><td><div></div></td></tr></table></div></td></tr><tr><td style="font-weight:bold;vertical-align:top;">session_id_traveldata</td><td style="vertical-align:top;">:</td><td><div>127.0.0.1-b0c230ba-99b8-4125-8644-19e562d9711c<table><tr><td style="font-weight:bold;vertical-align:top;">comment</td><td style="vertical-align:top;">:</td><td><div></div></td></tr><tr><td style="font-weight:bold;vertical-align:top;">domain</td><td style="vertical-align:top;">:</td><td><div></div></td></tr><tr><td style="font-weight:bold;vertical-align:top;">expires</td><td style="vertical-align:top;">:</td><td><div></div></td></tr><tr><td style="font-weight:bold;vertical-align:top;">httponly</td><td style="vertical-align:top;">:</td><td><div></div></td></tr><tr><td style="font-weight:bold;vertical-align:top;">max-age</td><td style="vertical-align:top;">:</td><td><div></div></td></tr><tr><td style="font-weight:bold;vertical-align:top;">path</td><td style="vertical-align:top;">:</td><td><div></div></td></tr><tr><td style="font-weight:bold;vertical-align:top;">secure</td><td style="vertical-align:top;">:</td><td><div></div></td></tr><tr><td style="font-weight:bold;vertical-align:top;">version</td><td style="vertical-align:top;">:</td><td><div></div></td></tr></table></div></td></tr><tr><td style="font-weight:bold;vertical-align:top;">session_id_trials</td><td style="vertical-align:top;">:</td><td><div>127.0.0.1-24e1e4a5-8550-4685-8c55-bbe382c96a69<table><tr><td style="font-weight:bold;vertical-align:top;">comment</td><td style="vertical-align:top;">:</td><td><div></div></td></tr><tr><td style="font-weight:bold;vertical-align:top;">domain</td><td style="vertical-align:top;">:</td><td><div></div></td></tr><tr><td style="font-weight:bold;vertical-align:top;">expires</td><td style="vertical-align:top;">:</td><td><div></div></td></tr><tr><td style="font-weight:bold;vertical-align:top;">httponly</td><td style="vertical-align:top;">:</td><td><div></div></td></tr><tr><td style="font-weight:bold;vertical-align:top;">max-age</td><td style="vertical-align:top;">:</td><td><div></div></td></tr><tr><td style="font-weight:bold;vertical-align:top;">path</td><td style="vertical-align:top;">:</td><td><div></div></td></tr><tr><td style="font-weight:bold;vertical-align:top;">secure</td><td style="vertical-align:top;">:</td><td><div></div></td></tr><tr><td style="font-weight:bold;vertical-align:top;">version</td><td style="vertical-align:top;">:</td><td><div></div></td></tr></table></div></td></tr><tr><td style="font-weight:bold;vertical-align:top;">session_id_webgl</td><td style="vertical-align:top;">:</td><td><div>127.0.0.1-11673111-e083-4e9b-bd8c-9414a97561fe<table><tr><td style="font-weight:bold;vertical-align:top;">comment</td><td style="vertical-align:top;">:</td><td><div></div></td></tr><tr><td style="font-weight:bold;vertical-align:top;">domain</td><td style="vertical-align:top;">:</td><td><div></div></td></tr><tr><td style="font-weight:bold;vertical-align:top;">expires</td><td style="vertical-align:top;">:</td><td><div></div></td></tr><tr><td style="font-weight:bold;vertical-align:top;">httponly</td><td style="vertical-align:top;">:</td><td><div></div></td></tr><tr><td style="font-weight:bold;vertical-align:top;">max-age</td><td style="vertical-align:top;">:</td><td><div></div></td></tr><tr><td style="font-weight:bold;vertical-align:top;">path</td><td style="vertical-align:top;">:</td><td><div></div></td></tr><tr><td style="font-weight:bold;vertical-align:top;">secure</td><td style="vertical-align:top;">:</td><td><div></div></td></tr><tr><td style="font-weight:bold;vertical-align:top;">version</td><td style="vertical-align:top;">:</td><td><div></div></td></tr></table></div></td></tr><tr><td style="font-weight:bold;vertical-align:top;">session_id_welcome</td><td style="vertical-align:top;">:</td><td><div>127.0.0.1-ddc989b1-0637-4375-b88f-3c3d3d2e8cb9<table><tr><td style="font-weight:bold;vertical-align:top;">comment</td><td style="vertical-align:top;">:</td><td><div></div></td></tr><tr><td style="font-weight:bold;vertical-align:top;">domain</td><td style="vertical-align:top;">:</td><td><div></div></td></tr><tr><td style="font-weight:bold;vertical-align:top;">expires</td><td style="vertical-align:top;">:</td><td><div></div></td></tr><tr><td style="font-weight:bold;vertical-align:top;">httponly</td><td style="vertical-align:top;">:</td><td><div></div></td></tr><tr><td style="font-weight:bold;vertical-align:top;">max-age</td><td style="vertical-align:top;">:</td><td><div></div></td></tr><tr><td style="font-weight:bold;vertical-align:top;">path</td><td style="vertical-align:top;">:</td><td><div></div></td></tr><tr><td style="font-weight:bold;vertical-align:top;">secure</td><td style="vertical-align:top;">:</td><td><div></div></td></tr><tr><td style="font-weight:bold;vertical-align:top;">version</td><td style="vertical-align:top;">:</td><td><div></div></td></tr></table></div></td></tr></table></div></td></tr><tr><td style="font-weight:bold;vertical-align:top;">env</td><td style="vertical-align:top;">:</td><td><div><table><tr><td style="font-weight:bold;vertical-align:top;">HTTP_ACCEPT</td><td style="vertical-align:top;">:</td><td><div>*/*</div></td></tr><tr><td style="font-weight:bold;vertical-align:top;">HTTP_ACCEPT_ENCODING</td><td style="vertical-align:top;">:</td><td><div>gzip,deflate,sdch</div></td></tr><tr><td style="font-weight:bold;vertical-align:top;">HTTP_ACCEPT_LANGUAGE</td><td style="vertical-align:top;">:</td><td><div>en-US,en;q=0.8</div></td></tr><tr><td style="font-weight:bold;vertical-align:top;">HTTP_CONNECTION</td><td style="vertical-align:top;">:</td><td><div>keep-alive</div></td></tr><tr><td style="font-weight:bold;vertical-align:top;">HTTP_COOKIE</td><td style="vertical-align:top;">:</td><td><div>session_id_assignment_review_1_2=127.0.0.1-96bbada8-5e2d-432c-8e51-411ca152d1f6; session_id_assignment_review_1_3=127.0.0.1-3184b62e-b28d-4ed1-bc6e-377e1fc4f19e; session_id_assignment_review_1_5=127.0.0.1-b4c2bf39-51be-4691-946a-62aa2a3d186a; session_id_assignment_review_1_4=127.0.0.1-9919f5ba-8cbe-40a6-956b-12cb9a4764cd; session_id_assignment_review_1_1=127.0.0.1-3282d5fa-1a99-42fc-b851-eca4ce9364d8; session_id_lists=127.0.0.1-98897ab7-1f70-416f-84a8-f86c7e62cf9f; session_id_ajaxupload=127.0.0.1-74e61eb0-9e75-4b95-a6ab-831ebdeea811; session_id_examples=True; _ga=GA1.1.394938448.1382554112; session_id_trackertests=127.0.0.1-e34ce045-9597-4f58-a323-09f0cb874657; session_id_file_share=127.0.0.1-c022a42d-55af-4bfa-8375-ab5e74d96229; session_id_trackerclient=127.0.0.1-4cc12dea-b038-4bfe-89e7-a5028b300bb8; session_id_webgl=127.0.0.1-11673111-e083-4e9b-bd8c-9414a97561fe; session_id_search=127.0.0.1-d6921a62-1229-4ec9-b617-a2ebdbd9d7c7; session_id_trials=127.0.0.1-24e1e4a5-8550-4685-8c55-bbe382c96a69; session_id_eve=127.0.0.1-da3d065a-4e9b-436e-a7fe-5a71ee4a3164; session_id_template=127.0.0.1-c530a364-afbc-47cd-bfce-ea6e88a562b3; session_id_traveldata=127.0.0.1-b0c230ba-99b8-4125-8644-19e562d9711c; PLAY_SESSION=&quot;e9eea4411145e620928d6360d279b213f5bff29b-csrfToken=028f93c314a98051f6ae6ce61beae4ec1167c3d6-1397113436997-a999d2046b7b47f3665251c6&quot;; session_id_project_org=127.0.0.1-051f5fa6-ef1f-4f95-b8b9-0b9b7356c490; session_id_highlanderkev=127.0.0.1-477a5837-967f-4984-a919-e768fdfda84a; session_id_machine_learning_virus_classify=127.0.0.1-f09eab9f-d600-4359-8b53-035a9666216f; session_id_interactive=127.0.0.1-2265edd2-e0f0-4b2b-a6a8-1785f0fb6b49; session_id_appengine=127.0.0.1-d9f0bc65-6c98-4913-b617-c7db572b3174; session_id_tracker=127.0.0.1-65738045-4987-478d-a74a-83d6ed13a0aa; session_id_envision=127.0.0.1-7d4161ad-e692-4559-b69f-f66709f02ecc; __utma=96992031.394938448.1382554112.1405314935.1405321662.85; __utmc=96992031; __utmz=96992031.1382554112.1.1.utmcsr=(direct)|utmccn=(direct)|utmcmd=(none); session_id_kpworg=127.0.0.1-3017bc17-4b0f-45be-8800-32e0dd93c1db; session_id_welcome=127.0.0.1-ddc989b1-0637-4375-b88f-3c3d3d2e8cb9; session_id_insider=127.0.0.1-d4500e52-711c-4c23-8e2b-9d0cfda5e93d; session_id_admin=127.0.0.1-8c7ec2bd-2918-4ae2-bfb6-bb64665223e6</div></td></tr><tr><td style="font-weight:bold;vertical-align:top;">HTTP_DNT</td><td style="vertical-align:top;">:</td><td><div>1</div></td></tr><tr><td style="font-weight:bold;vertical-align:top;">HTTP_HOST</td><td style="vertical-align:top;">:</td><td><div>127.0.0.1:8000</div></td></tr><tr><td style="font-weight:bold;vertical-align:top;">HTTP_REFERER</td><td style="vertical-align:top;">:</td><td><div>http://127.0.0.1:8000/insider/default/index/0/apple</div></td></tr><tr><td style="font-weight:bold;vertical-align:top;">HTTP_USER_AGENT</td><td style="vertical-align:top;">:</td><td><div>Mozilla/5.0 (Macintosh; Intel Mac OS X 10_9_4) AppleWebKit/537.36 (KHTML, like Gecko) Chrome/35.0.1916.153 Safari/537.36</div></td></tr><tr><td style="font-weight:bold;vertical-align:top;">HTTP_WEB2PY_COMPONENT_ELEMENT</td><td style="vertical-align:top;">:</td><td><div>c348553846778</div></td></tr><tr><td style="font-weight:bold;vertical-align:top;">HTTP_WEB2PY_COMPONENT_LOCATION</td><td style="vertical-align:top;">:</td><td><div>http://127.0.0.1:8000/insider/default/index/0/apple#</div></td></tr><tr><td style="font-weight:bold;vertical-align:top;">HTTP_X_REQUESTED_WITH</td><td style="vertical-align:top;">:</td><td><div>XMLHttpRequest</div></td></tr><tr><td style="font-weight:bold;vertical-align:top;">PATH_INFO</td><td style="vertical-align:top;">:</td><td><div>/insider/default/ticker.load</div></td></tr><tr><td style="font-weight:bold;vertical-align:top;">QUERY_STRING</td><td style="vertical-align:top;">:</td><td><div></div></td></tr><tr><td style="font-weight:bold;vertical-align:top;">REMOTE_ADDR</td><td style="vertical-align:top;">:</td><td><div>127.0.0.1</div></td></tr><tr><td style="font-weight:bold;vertical-align:top;">REMOTE_PORT</td><td style="vertical-align:top;">:</td><td><div>61651</div></td></tr><tr><td style="font-weight:bold;vertical-align:top;">REQUEST_METHOD</td><td style="vertical-align:top;">:</td><td><div>GET</div></td></tr><tr><td style="font-weight:bold;vertical-align:top;">SCRIPT_NAME</td><td style="vertical-align:top;">:</td><td><div></div></td></tr><tr><td style="font-weight:bold;vertical-align:top;">SERVER_NAME</td><td style="vertical-align:top;">:</td><td><div>Kevins-Mac-mini.local</div></td></tr><tr><td style="font-weight:bold;vertical-align:top;">SERVER_PORT</td><td style="vertical-align:top;">:</td><td><div>8000</div></td></tr><tr><td style="font-weight:bold;vertical-align:top;">SERVER_PROTOCOL</td><td style="vertical-align:top;">:</td><td><div>HTTP/1.1</div></td></tr><tr><td style="font-weight:bold;vertical-align:top;">SERVER_SOFTWARE</td><td style="vertical-align:top;">:</td><td><div>Rocket 1.2.6</div></td></tr><tr><td style="font-weight:bold;vertical-align:top;">app_folders</td><td style="vertical-align:top;">:</td><td><div>set([&#x27;/Applications/web2py.app/Contents/Resources/applications/insider/&#x27;, &#x27;/Applications/web2py.app/Contents/Resources/applications/admin/&#x27;, &#x27;/Applications/web2py.app/Contents/Resources/applications/welcome/&#x27;])</div></td></tr><tr><td style="font-weight:bold;vertical-align:top;">applications_parent</td><td style="vertical-align:top;">:</td><td><div>/Applications/web2py.app/Contents/Resources</div></td></tr><tr><td style="font-weight:bold;vertical-align:top;">cmd_args</td><td style="vertical-align:top;">:</td><td><div><table></table></div></td></tr><tr><td style="font-weight:bold;vertical-align:top;">cmd_options</td><td style="vertical-align:top;">:</td><td><div>&lt;Values at 0x109a6c4d0: {&#x27;verbose&#x27;: False, &#x27;ip&#x27;: &#x27;127.0.0.1&#x27;, &#x27;debuglevel&#x27;: 30, &#x27;with_scheduler&#x27;: False, &#x27;ips&#x27;: [&#x27;fe80::12dd:b1ff:fed8:db62%en1&#x27;, &#x27;fe80::12dd:b1ff:fed8:db62%en0&#x27;, &#x27;fe80::2acf:e9ff:fe0a:5cb9%en1&#x27;, &#x27;fe80::2acf:e9ff:fe0a:5cb9%en0&#x27;, &#x27;10.0.1.16&#x27;, &#x27;10.0.1.17&#x27;], &#x27;shutdown_timeout&#x27;: 5, &#x27;taskbar&#x27;: False, &#x27;with_coverage&#x27;: False, &#x27;port&#x27;: 8000, &#x27;maxthreads&#x27;: None, &#x27;softcron&#x27;: False, &#x27;server_name&#x27;: &#x27;Kevins-Mac-mini.local&#x27;, &#x27;bpython&#x27;: False, &#x27;nogui&#x27;: False, &#x27;pid_filename&#x27;: &#x27;httpserver.pid&#x27;, &#x27;extcron&#x27;: False, &#x27;runcron&#x27;: False, &#x27;run_system_tests&#x27;: False, &#x27;test&#x27;: None, &#x27;folder&#x27;: &#x27;/Applications/web2py.app/Contents/Resources&#x27;, &#x27;config&#x27;: &#x27;&#x27;, &#x27;minthreads&#x27;: None, &#x27;shell&#x27;: None, &#x27;run&#x27;: &#x27;&#x27;, &#x27;log_filename&#x27;: &#x27;httpserver.log&#x27;, &#x27;profiler_dir&#x27;: None, &#x27;args&#x27;: [&#x27;&#x27;], &#x27;socket_timeout&#x27;: 5, &#x27;ssl_ca_certificate&#x27;: None, &#x27;scheduler&#x27;: None, &#x27;interfaces&#x27;: None, &#x27;ssl_private_key&#x27;: &#x27;&#x27;, &#x27;scheduler_groups&#x27;: None, &#x27;password&#x27;: &#x27;&lt;ask&gt;&#x27;, &#x27;request_queue_size&#x27;: 5, &#x27;ssl_certificate&#x27;: &#x27;&#x27;, &#x27;cronjob&#x27;: False, &#x27;numthreads&#x27;: None, &#x27;quiet&#x27;: False, &#x27;import_models&#x27;: False, &#x27;timeout&#x27;: 10, &#x27;plain&#x27;: False, &#x27;nobanner&#x27;: False}&gt;</div></td></tr><tr><td style="font-weight:bold;vertical-align:top;">db_sessions</td><td style="vertical-align:top;">:</td><td><div>set([])</div></td></tr><tr><td style="font-weight:bold;vertical-align:top;">debugging</td><td style="vertical-align:top;">:</td><td><div>True</div></td></tr><tr><td style="font-weight:bold;vertical-align:top;">gluon_parent</td><td style="vertical-align:top;">:</td><td><div>/Applications/web2py.app/Contents/Resources</div></td></tr><tr><td style="font-weight:bold;vertical-align:top;">http_accept</td><td style="vertical-align:top;">:</td><td><div>*/*</div></td></tr><tr><td style="font-weight:bold;vertical-align:top;">http_accept_encoding</td><td style="vertical-align:top;">:</td><td><div>gzip,deflate,sdch</div></td></tr><tr><td style="font-weight:bold;vertical-align:top;">http_accept_language</td><td style="vertical-align:top;">:</td><td><div>en-US,en;q=0.8</div></td></tr><tr><td style="font-weight:bold;vertical-align:top;">http_connection</td><td style="vertical-align:top;">:</td><td><div>keep-alive</div></td></tr><tr><td style="font-weight:bold;vertical-align:top;">http_cookie</td><td style="vertical-align:top;">:</td><td><div>session_id_assignment_review_1_2=127.0.0.1-96bbada8-5e2d-432c-8e51-411ca152d1f6; session_id_assignment_review_1_3=127.0.0.1-3184b62e-b28d-4ed1-bc6e-377e1fc4f19e; session_id_assignment_review_1_5=127.0.0.1-b4c2bf39-51be-4691-946a-62aa2a3d186a; session_id_assignment_review_1_4=127.0.0.1-9919f5ba-8cbe-40a6-956b-12cb9a4764cd; session_id_assignment_review_1_1=127.0.0.1-3282d5fa-1a99-42fc-b851-eca4ce9364d8; session_id_lists=127.0.0.1-98897ab7-1f70-416f-84a8-f86c7e62cf9f; session_id_ajaxupload=127.0.0.1-74e61eb0-9e75-4b95-a6ab-831ebdeea811; session_id_examples=True; _ga=GA1.1.394938448.1382554112; session_id_trackertests=127.0.0.1-e34ce045-9597-4f58-a323-09f0cb874657; session_id_file_share=127.0.0.1-c022a42d-55af-4bfa-8375-ab5e74d96229; session_id_trackerclient=127.0.0.1-4cc12dea-b038-4bfe-89e7-a5028b300bb8; session_id_webgl=127.0.0.1-11673111-e083-4e9b-bd8c-9414a97561fe; session_id_search=127.0.0.1-d6921a62-1229-4ec9-b617-a2ebdbd9d7c7; session_id_trials=127.0.0.1-24e1e4a5-8550-4685-8c55-bbe382c96a69; session_id_eve=127.0.0.1-da3d065a-4e9b-436e-a7fe-5a71ee4a3164; session_id_template=127.0.0.1-c530a364-afbc-47cd-bfce-ea6e88a562b3; session_id_traveldata=127.0.0.1-b0c230ba-99b8-4125-8644-19e562d9711c; PLAY_SESSION=&quot;e9eea4411145e620928d6360d279b213f5bff29b-csrfToken=028f93c314a98051f6ae6ce61beae4ec1167c3d6-1397113436997-a999d2046b7b47f3665251c6&quot;; session_id_project_org=127.0.0.1-051f5fa6-ef1f-4f95-b8b9-0b9b7356c490; session_id_highlanderkev=127.0.0.1-477a5837-967f-4984-a919-e768fdfda84a; session_id_machine_learning_virus_classify=127.0.0.1-f09eab9f-d600-4359-8b53-035a9666216f; session_id_interactive=127.0.0.1-2265edd2-e0f0-4b2b-a6a8-1785f0fb6b49; session_id_appengine=127.0.0.1-d9f0bc65-6c98-4913-b617-c7db572b3174; session_id_tracker=127.0.0.1-65738045-4987-478d-a74a-83d6ed13a0aa; session_id_envision=127.0.0.1-7d4161ad-e692-4559-b69f-f66709f02ecc; __utma=96992031.394938448.1382554112.1405314935.1405321662.85; __utmc=96992031; __utmz=96992031.1382554112.1.1.utmcsr=(direct)|utmccn=(direct)|utmcmd=(none); session_id_kpworg=127.0.0.1-3017bc17-4b0f-45be-8800-32e0dd93c1db; session_id_welcome=127.0.0.1-ddc989b1-0637-4375-b88f-3c3d3d2e8cb9; session_id_insider=127.0.0.1-d4500e52-711c-4c23-8e2b-9d0cfda5e93d; session_id_admin=127.0.0.1-8c7ec2bd-2918-4ae2-bfb6-bb64665223e6</div></td></tr><tr><td style="font-weight:bold;vertical-align:top;">http_dnt</td><td style="vertical-align:top;">:</td><td><div>1</div></td></tr><tr><td style="font-weight:bold;vertical-align:top;">http_host</td><td style="vertical-align:top;">:</td><td><div>127.0.0.1:8000</div></td></tr><tr><td style="font-weight:bold;vertical-align:top;">http_referer</td><td style="vertical-align:top;">:</td><td><div>http://127.0.0.1:8000/insider/default/index/0/apple</div></td></tr><tr><td style="font-weight:bold;vertical-align:top;">http_user_agent</td><td style="vertical-align:top;">:</td><td><div>Mozilla/5.0 (Macintosh; Intel Mac OS X 10_9_4) AppleWebKit/537.36 (KHTML, like Gecko) Chrome/35.0.1916.153 Safari/537.36</div></td></tr><tr><td style="font-weight:bold;vertical-align:top;">http_web2py_component_element</td><td style="vertical-align:top;">:</td><td><div>c348553846778</div></td></tr><tr><td style="font-weight:bold;vertical-align:top;">http_web2py_component_location</td><td style="vertical-align:top;">:</td><td><div>http://127.0.0.1:8000/insider/default/index/0/apple#</div></td></tr><tr><td style="font-weight:bold;vertical-align:top;">http_x_requested_with</td><td style="vertical-align:top;">:</td><td><div>XMLHttpRequest</div></td></tr><tr><td style="font-weight:bold;vertical-align:top;">is_jython</td><td style="vertical-align:top;">:</td><td><div>False</div></td></tr><tr><td style="font-weight:bold;vertical-align:top;">is_pypy</td><td style="vertical-align:top;">:</td><td><div>False</div></td></tr><tr><td style="font-weight:bold;vertical-align:top;">is_source</td><td style="vertical-align:top;">:</td><td><div>True</div></td></tr><tr><td style="font-weight:bold;vertical-align:top;">local_hosts</td><td style="vertical-align:top;">:</td><td><div><table><tr><td><div>fe80::12dd:b1ff:fed8:db62%en1</div></td></tr><tr><td><div>fe80::12dd:b1ff:fed8:db62%en0</div></td></tr><tr><td><div>Kevins-Mac-mini.local</div></td></tr><tr><td><div>fe80::2acf:e9ff:fe0a:5cb9%en1</div></td></tr><tr><td><div>::ffff:127.0.0.1</div></td></tr><tr><td><div>::1</div></td></tr><tr><td><div>fe80::2acf:e9ff:fe0a:5cb9%en0</div></td></tr><tr><td><div>10.0.1.16</div></td></tr><tr><td><div>10.0.1.17</div></td></tr><tr><td><div>127.0.0.1</div></td></tr></table></div></td></tr><tr><td style="font-weight:bold;vertical-align:top;">path_info</td><td style="vertical-align:top;">:</td><td><div>/insider/default/ticker.load</div></td></tr><tr><td style="font-weight:bold;vertical-align:top;">query_string</td><td style="vertical-align:top;">:</td><td><div></div></td></tr><tr><td style="font-weight:bold;vertical-align:top;">remote_addr</td><td style="vertical-align:top;">:</td><td><div>127.0.0.1</div></td></tr><tr><td style="font-weight:bold;vertical-align:top;">remote_port</td><td style="vertical-align:top;">:</td><td><div>61651</div></td></tr><tr><td style="font-weight:bold;vertical-align:top;">request_method</td><td style="vertical-align:top;">:</td><td><div>GET</div></td></tr><tr><td style="font-weight:bold;vertical-align:top;">request_uri</td><td style="vertical-align:top;">:</td><td><div>/insider/default/ticker.load</div></td></tr><tr><td style="font-weight:bold;vertical-align:top;">script_name</td><td style="vertical-align:top;">:</td><td><div></div></td></tr><tr><td style="font-weight:bold;vertical-align:top;">server_name</td><td style="vertical-align:top;">:</td><td><div>Kevins-Mac-mini.local</div></td></tr><tr><td style="font-weight:bold;vertical-align:top;">server_port</td><td style="vertical-align:top;">:</td><td><div>8000</div></td></tr><tr><td style="font-weight:bold;vertical-align:top;">server_protocol</td><td style="vertical-align:top;">:</td><td><div>HTTP/1.1</div></td></tr><tr><td style="font-weight:bold;vertical-align:top;">server_software</td><td style="vertical-align:top;">:</td><td><div>Rocket 1.2.6</div></td></tr><tr><td style="font-weight:bold;vertical-align:top;">web2py_path</td><td style="vertical-align:top;">:</td><td><div>/Applications/web2py.app/Contents/Resources</div></td></tr><tr><td style="font-weight:bold;vertical-align:top;">web2py_version</td><td style="vertical-align:top;">:</td><td><div>2.9.5-stable+timestamp.2014.03.16.02.35.39</div></td></tr><tr><td style="font-weight:bold;vertical-align:top;">wsgi.errors</td><td style="vertical-align:top;">:</td><td><div>&lt;open file &#x27;&lt;stderr&gt;&#x27;, mode &#x27;w&#x27; at 0x107bb11e0&gt;</div></td></tr><tr><td style="font-weight:bold;vertical-align:top;">wsgi.file_wrapper</td><td style="vertical-align:top;">:</td><td><div>&lt;class wsgiref.util.FileWrapper at 0x1087d52c0&gt;</div></td></tr><tr><td style="font-weight:bold;vertical-align:top;">wsgi.input</td><td style="vertical-align:top;">:</td><td><div>&lt;socket._fileobject object at 0x1123cfe50&gt;</div></td></tr><tr><td style="font-weight:bold;vertical-align:top;">wsgi.multiprocess</td><td style="vertical-align:top;">:</td><td><div>False</div></td></tr><tr><td style="font-weight:bold;vertical-align:top;">wsgi.multithread</td><td style="vertical-align:top;">:</td><td><div>True</div></td></tr><tr><td style="font-weight:bold;vertical-align:top;">wsgi.run_once</td><td style="vertical-align:top;">:</td><td><div>False</div></td></tr><tr><td style="font-weight:bold;vertical-align:top;">wsgi.url_scheme</td><td style="vertical-align:top;">:</td><td><div>http</div></td></tr><tr><td style="font-weight:bold;vertical-align:top;">wsgi.version</td><td style="vertical-align:top;">:</td><td><div><table><tr><td><div>1</div></td></tr><tr><td><div>0</div></td></tr></table></div></td></tr><tr><td style="font-weight:bold;vertical-align:top;">wsgi_errors</td><td style="vertical-align:top;">:</td><td><div>&lt;open file &#x27;&lt;stderr&gt;&#x27;, mode &#x27;w&#x27; at 0x107bb11e0&gt;</div></td></tr><tr><td style="font-weight:bold;vertical-align:top;">wsgi_file_wrapper</td><td style="vertical-align:top;">:</td><td><div>&lt;class wsgiref.util.FileWrapper at 0x1087d52c0&gt;</div></td></tr><tr><td style="font-weight:bold;vertical-align:top;">wsgi_input</td><td style="vertical-align:top;">:</td><td><div>&lt;socket._fileobject object at 0x1123cfe50&gt;</div></td></tr><tr><td style="font-weight:bold;vertical-align:top;">wsgi_multiprocess</td><td style="vertical-align:top;">:</td><td><div>False</div></td></tr><tr><td style="font-weight:bold;vertical-align:top;">wsgi_multithread</td><td style="vertical-align:top;">:</td><td><div>True</div></td></tr><tr><td style="font-weight:bold;vertical-align:top;">wsgi_run_once</td><td style="vertical-align:top;">:</td><td><div>False</div></td></tr><tr><td style="font-weight:bold;vertical-align:top;">wsgi_url_scheme</td><td style="vertical-align:top;">:</td><td><div>http</div></td></tr><tr><td style="font-weight:bold;vertical-align:top;">wsgi_version</td><td style="vertical-align:top;">:</td><td><div><table><tr><td><div>1</div></td></tr><tr><td><div>0</div></td></tr></table></div></td></tr></table></div></td></tr><tr><td style="font-weight:bold;vertical-align:top;">extension</td><td style="vertical-align:top;">:</td><td><div>load</div></td></tr><tr><td style="font-weight:bold;vertical-align:top;">folder</td><td style="vertical-align:top;">:</td><td><div>/Applications/web2py.app/Contents/Resources/applications/insider/</div></td></tr><tr><td style="font-weight:bold;vertical-align:top;">function</td><td style="vertical-align:top;">:</td><td><div>ticker</div></td></tr><tr><td style="font-weight:bold;vertical-align:top;">global_settings</td><td style="vertical-align:top;">:</td><td><div><table><tr><td style="font-weight:bold;vertical-align:top;">app_folders</td><td style="vertical-align:top;">:</td><td><div>set([&#x27;/Applications/web2py.app/Contents/Resources/applications/insider/&#x27;, &#x27;/Applications/web2py.app/Contents/Resources/applications/admin/&#x27;, &#x27;/Applications/web2py.app/Contents/Resources/applications/welcome/&#x27;])</div></td></tr><tr><td style="font-weight:bold;vertical-align:top;">applications_parent</td><td style="vertical-align:top;">:</td><td><div>/Applications/web2py.app/Contents/Resources</div></td></tr><tr><td style="font-weight:bold;vertical-align:top;">cmd_args</td><td style="vertical-align:top;">:</td><td><div><table></table></div></td></tr><tr><td style="font-weight:bold;vertical-align:top;">cmd_options</td><td style="vertical-align:top;">:</td><td><div>&lt;Values at 0x109a6c4d0: {&#x27;verbose&#x27;: False, &#x27;ip&#x27;: &#x27;127.0.0.1&#x27;, &#x27;debuglevel&#x27;: 30, &#x27;with_scheduler&#x27;: False, &#x27;ips&#x27;: [&#x27;fe80::12dd:b1ff:fed8:db62%en1&#x27;, &#x27;fe80::12dd:b1ff:fed8:db62%en0&#x27;, &#x27;fe80::2acf:e9ff:fe0a:5cb9%en1&#x27;, &#x27;fe80::2acf:e9ff:fe0a:5cb9%en0&#x27;, &#x27;10.0.1.16&#x27;, &#x27;10.0.1.17&#x27;], &#x27;shutdown_timeout&#x27;: 5, &#x27;taskbar&#x27;: False, &#x27;with_coverage&#x27;: False, &#x27;port&#x27;: 8000, &#x27;maxthreads&#x27;: None, &#x27;softcron&#x27;: False, &#x27;server_name&#x27;: &#x27;Kevins-Mac-mini.local&#x27;, &#x27;bpython&#x27;: False, &#x27;nogui&#x27;: False, &#x27;pid_filename&#x27;: &#x27;httpserver.pid&#x27;, &#x27;extcron&#x27;: False, &#x27;runcron&#x27;: False, &#x27;run_system_tests&#x27;: False, &#x27;test&#x27;: None, &#x27;folder&#x27;: &#x27;/Applications/web2py.app/Contents/Resources&#x27;, &#x27;config&#x27;: &#x27;&#x27;, &#x27;minthreads&#x27;: None, &#x27;shell&#x27;: None, &#x27;run&#x27;: &#x27;&#x27;, &#x27;log_filename&#x27;: &#x27;httpserver.log&#x27;, &#x27;profiler_dir&#x27;: None, &#x27;args&#x27;: [&#x27;&#x27;], &#x27;socket_timeout&#x27;: 5, &#x27;ssl_ca_certificate&#x27;: None, &#x27;scheduler&#x27;: None, &#x27;interfaces&#x27;: None, &#x27;ssl_private_key&#x27;: &#x27;&#x27;, &#x27;scheduler_groups&#x27;: None, &#x27;password&#x27;: &#x27;&lt;ask&gt;&#x27;, &#x27;request_queue_size&#x27;: 5, &#x27;ssl_certificate&#x27;: &#x27;&#x27;, &#x27;cronjob&#x27;: False, &#x27;numthreads&#x27;: None, &#x27;quiet&#x27;: False, &#x27;import_models&#x27;: False, &#x27;timeout&#x27;: 10, &#x27;plain&#x27;: False, &#x27;nobanner&#x27;: False}&gt;</div></td></tr><tr><td style="font-weight:bold;vertical-align:top;">db_sessions</td><td style="vertical-align:top;">:</td><td><div>set([])</div></td></tr><tr><td style="font-weight:bold;vertical-align:top;">debugging</td><td style="vertical-align:top;">:</td><td><div>True</div></td></tr><tr><td style="font-weight:bold;vertical-align:top;">gluon_parent</td><td style="vertical-align:top;">:</td><td><div>/Applications/web2py.app/Contents/Resources</div></td></tr><tr><td style="font-weight:bold;vertical-align:top;">is_jython</td><td style="vertical-align:top;">:</td><td><div>False</div></td></tr><tr><td style="font-weight:bold;vertical-align:top;">is_pypy</td><td style="vertical-align:top;">:</td><td><div>False</div></td></tr><tr><td style="font-weight:bold;vertical-align:top;">is_source</td><td style="vertical-align:top;">:</td><td><div>True</div></td></tr><tr><td style="font-weight:bold;vertical-align:top;">local_hosts</td><td style="vertical-align:top;">:</td><td><div><table><tr><td><div>fe80::12dd:b1ff:fed8:db62%en1</div></td></tr><tr><td><div>fe80::12dd:b1ff:fed8:db62%en0</div></td></tr><tr><td><div>Kevins-Mac-mini.local</div></td></tr><tr><td><div>fe80::2acf:e9ff:fe0a:5cb9%en1</div></td></tr><tr><td><div>::ffff:127.0.0.1</div></td></tr><tr><td><div>::1</div></td></tr><tr><td><div>fe80::2acf:e9ff:fe0a:5cb9%en0</div></td></tr><tr><td><div>10.0.1.16</div></td></tr><tr><td><div>10.0.1.17</div></td></tr><tr><td><div>127.0.0.1</div></td></tr></table></div></td></tr><tr><td style="font-weight:bold;vertical-align:top;">web2py_version</td><td style="vertical-align:top;">:</td><td><div>2.9.5-stable+timestamp.2014.03.16.02.35.39</div></td></tr></table></div></td></tr><tr><td style="font-weight:bold;vertical-align:top;">is_https</td><td style="vertical-align:top;">:</td><td><div>False</div></td></tr><tr><td style="font-weight:bold;vertical-align:top;">is_local</td><td style="vertical-align:top;">:</td><td><div>True</div></td></tr><tr><td style="font-weight:bold;vertical-align:top;">is_restful</td><td style="vertical-align:top;">:</td><td><div>False</div></td></tr><tr><td style="font-weight:bold;vertical-align:top;">now</td><td style="vertical-align:top;">:</td><td><div>datetime.datetime(2014, 7, 15, 13, 4, 12, 673063)</div></td></tr><tr><td style="font-weight:bold;vertical-align:top;">raw_args</td><td style="vertical-align:top;">:</td><td><div></div></td></tr><tr><td style="font-weight:bold;vertical-align:top;">raw_extension</td><td style="vertical-align:top;">:</td><td><div>load</div></td></tr><tr><td style="font-weight:bold;vertical-align:top;">url</td><td style="vertical-align:top;">:</td><td><div>/insider/default/ticker.load</div></td></tr><tr><td style="font-weight:bold;vertical-align:top;">utcnow</td><td style="vertical-align:top;">:</td><td><div>datetime.datetime(2014, 7, 15, 18, 4, 12, 673073)</div></td></tr><tr><td style="font-weight:bold;vertical-align:top;">uuid</td><td style="vertical-align:top;">:</td><td><div>insider/127.0.0.1.2014-07-15.13-04-12.0fabcf59-09b6-406f-97c1-52e83db40d62</div></td></tr><tr><td style="font-weight:bold;vertical-align:top;">wsgi</td><td style="vertical-align:top;">:</td><td><div>&lt;gluon.main.LazyWSGI object at 0x11267aad0&gt;</div></td></tr></table></div>'
tRp58
sS'frames'
p59
(lp60
(dp61
S'file'
p62
S'/Applications/web2py.app/Contents/Resources/gluon/restricted.py'
p63
sS'dump'
p64
(dp65
S'environment'
p66
S"{'A': <class 'gluon.html.A'>, 'ANY_OF': <class 'gluon.validators.ANY_OF'>, 'Auth': <class 'gluon.tools.Auth'>, 'B': <class 'gluon.html.B'>, 'BEAUTIFY': <class 'gluon.html.BEAUTIFY'>, 'BODY': <class 'gluon.html.BODY'>, 'BR': <class 'gluon.html.BR'>, 'BUTTON': <class 'gluon.html.BUTTON'>, 'CAT': <class 'gluon.html.CAT'>, 'CENTER': <class 'gluon.html.CENTER'>, ...}"
p67
sS'ccode'
p68
S'<code object <module> at 0x1125842b0, file "/App...ces/applications/insider/models/menu.py", line 8>'
p69
ssS'lnum'
p70
I220
sS'lines'
p71
(dp72
I224
S'        # do not encapsulate (obfuscate) the original RestrictedError'
p73
sI215
S'    try:'
p74
sI216
S'        if isinstance(code, types.CodeType):'
p75
sI217
S'            ccode = code'
p76
sI218
S'        else:'
p77
sI219
S'            ccode = compile2(code, layer)'
p78
sI220
S'        exec ccode in environment'
p79
sI221
S'    except HTTP:'
p80
sI222
S'        raise'
p81
sI223
S'    except RestrictedError:'
p82
ssS'call'
p83
S'(code="# -*- coding: utf-8 -*-\\n# this file is released ...T(\'Home\'), False, URL(\'default\', \'index\'), [])\\n]\\n", environment={\'A\': <class \'gluon.html.A\'>, \'ANY_OF\': <class \'gluon.validators.ANY_OF\'>, \'Auth\': <class \'gluon.tools.Auth\'>, \'B\': <class \'gluon.html.B\'>, \'BEAUTIFY\': <class \'gluon.html.BEAUTIFY\'>, \'BODY\': <class \'gluon.html.BODY\'>, \'BR\': <class \'gluon.html.BR\'>, \'BUTTON\': <class \'gluon.html.BUTTON\'>, \'CAT\': <class \'gluon.html.CAT\'>, \'CENTER\': <class \'gluon.html.CENTER\'>, ...}, layer=\'/Applications/web2py.app/Contents/Resources/applications/insider/models/menu.py\')'
p84
sS'func'
p85
S'restricted'
p86
sa(dp87
g62
S'/Applications/web2py.app/Contents/Resources/applications/insider/models/menu.py'
p88
sg64
(dp89
S'request'
p90
S"<Storage {'_vars': None, 'function': 'ticker', '...y.app/Contents/Resources/applications/insider/'}>"
p91
sS'get_dateday'
p92
S'undefined'
p93
sS'response.subtitle'
p94
S'None'
p95
sS'response'
p96
S"<Storage {'body': <cStringIO.StringO object at 0... at 0x111f60938>, 'view': 'default/ticker.load'}>"
p97
sS'request.now'
p98
S'datetime.datetime(2014, 7, 15, 13, 4, 12, 673063)'
p99
ssg70
I10
sg71
(dp100
I5
S'## Customize your APP title, subtitle and menus here'
p101
sI6
S'#########################################################################'
p102
sI7
S''
sI8
S"response.logo = ''"
p103
sI9
S"response.title = 'Investment Insider'"
p104
sI10
S'response.subtitle = get_dateday(request.now)'
p105
sI11
S''
sI12
S'## read more at http://dev.w3.org/html5/markup/meta.name.html'
p106
sI13
S"response.meta.author = 'Kevin Patrick Westropp <mail@kevinpatrickwestropp.com>'"
p107
sI14
S"response.meta.description = 'Discuss investment stragies and become an insider.'"
p108
ssg83
S'()'
p109
sg85
S'<module>'
p110
sasS'pyver'
p111
S'Python 2.7.5: /usr/bin/python (prefix: /System/Library/Frameworks/Python.framework/Versions/2.7)'
p112
sS'session'
p113
g57
(S's\x98\x00\x00\x00<div><table><tr><td style="font-weight:bold;vertical-align:top;">flash</td><td style="vertical-align:top;">:</td><td><div></div></td></tr></table></div>'
tRp114
sS'etype'
p115
S"<type 'exceptions.NameError'>"
p116
sS'date'
p117
S'Tue Jul 15 13:04:12 2014'
p118
sS'response'
p119
g57
(S's\x04\x18\x00\x00<div><table><tr><td style="font-weight:bold;vertical-align:top;">body</td><td style="vertical-align:top;">:</td><td><div>&lt;cStringIO.StringO object at 0x111f5c0d8&gt;</div></td></tr><tr><td style="font-weight:bold;vertical-align:top;">cookies</td><td style="vertical-align:top;">:</td><td><div><table><tr><td style="font-weight:bold;vertical-align:top;">session_id_insider</td><td style="vertical-align:top;">:</td><td><div>127.0.0.1-d4500e52-711c-4c23-8e2b-9d0cfda5e93d<table><tr><td style="font-weight:bold;vertical-align:top;">comment</td><td style="vertical-align:top;">:</td><td><div></div></td></tr><tr><td style="font-weight:bold;vertical-align:top;">domain</td><td style="vertical-align:top;">:</td><td><div></div></td></tr><tr><td style="font-weight:bold;vertical-align:top;">expires</td><td style="vertical-align:top;">:</td><td><div></div></td></tr><tr><td style="font-weight:bold;vertical-align:top;">httponly</td><td style="vertical-align:top;">:</td><td><div></div></td></tr><tr><td style="font-weight:bold;vertical-align:top;">max-age</td><td style="vertical-align:top;">:</td><td><div></div></td></tr><tr><td style="font-weight:bold;vertical-align:top;">path</td><td style="vertical-align:top;">:</td><td><div>/</div></td></tr><tr><td style="font-weight:bold;vertical-align:top;">secure</td><td style="vertical-align:top;">:</td><td><div></div></td></tr><tr><td style="font-weight:bold;vertical-align:top;">version</td><td style="vertical-align:top;">:</td><td><div></div></td></tr></table></div></td></tr></table></div></td></tr><tr><td style="font-weight:bold;vertical-align:top;">delimiters</td><td style="vertical-align:top;">:</td><td><div><table><tr><td><div>{{</div></td></tr><tr><td><div>}}</div></td></tr></table></div></td></tr><tr><td style="font-weight:bold;vertical-align:top;">files</td><td style="vertical-align:top;">:</td><td><div><table></table></div></td></tr><tr><td style="font-weight:bold;vertical-align:top;">flash</td><td style="vertical-align:top;">:</td><td><div></div></td></tr><tr><td style="font-weight:bold;vertical-align:top;">generic_patterns</td><td style="vertical-align:top;">:</td><td><div><table><tr><td><div>*</div></td></tr></table></div></td></tr><tr><td style="font-weight:bold;vertical-align:top;">headers</td><td style="vertical-align:top;">:</td><td><div><table><tr><td style="font-weight:bold;vertical-align:top;">X-Powered-By</td><td style="vertical-align:top;">:</td><td><div>web2py</div></td></tr></table></div></td></tr><tr><td style="font-weight:bold;vertical-align:top;">logo</td><td style="vertical-align:top;">:</td><td><div></div></td></tr><tr><td style="font-weight:bold;vertical-align:top;">menu</td><td style="vertical-align:top;">:</td><td><div><table></table></div></td></tr><tr><td style="font-weight:bold;vertical-align:top;">meta</td><td style="vertical-align:top;">:</td><td><div><table></table></div></td></tr><tr><td style="font-weight:bold;vertical-align:top;">models_to_run</td><td style="vertical-align:top;">:</td><td><div><table><tr><td><div>^\\w+\\.py$</div></td></tr><tr><td><div>^default/\\w+\\.py$</div></td></tr><tr><td><div>^default/ticker/\\w+\\.py$</div></td></tr></table></div></td></tr><tr><td style="font-weight:bold;vertical-align:top;">postprocessing</td><td style="vertical-align:top;">:</td><td><div><table></table></div></td></tr><tr><td style="font-weight:bold;vertical-align:top;">session_client</td><td style="vertical-align:top;">:</td><td><div>127.0.0.1</div></td></tr><tr><td style="font-weight:bold;vertical-align:top;">session_cookie_compression_level</td><td style="vertical-align:top;">:</td><td><div>None</div></td></tr><tr><td style="font-weight:bold;vertical-align:top;">session_cookie_expires</td><td style="vertical-align:top;">:</td><td><div>None</div></td></tr><tr><td style="font-weight:bold;vertical-align:top;">session_cookie_key</td><td style="vertical-align:top;">:</td><td><div>None</div></td></tr><tr><td style="font-weight:bold;vertical-align:top;">session_data_name</td><td style="vertical-align:top;">:</td><td><div>session_data_insider</div></td></tr><tr><td style="font-weight:bold;vertical-align:top;">session_file</td><td style="vertical-align:top;">:</td><td><div>&lt;open file &#x27;/Applications/web2py.app/Contents/Resources/applications/insider/sessions/127.0.0.1-d4500e52-711c-4c23-8e2b-9d0cfda5e93d&#x27;, mode &#x27;rb+&#x27; at 0x111d93270&gt;</div></td></tr><tr><td style="font-weight:bold;vertical-align:top;">session_filename</td><td style="vertical-align:top;">:</td><td><div>/Applications/web2py.app/Contents/Resources/applications/insider/sessions/127.0.0.1-d4500e52-711c-4c23-8e2b-9d0cfda5e93d</div></td></tr><tr><td style="font-weight:bold;vertical-align:top;">session_hash</td><td style="vertical-align:top;">:</td><td><div>d62f23ee2acd8567261981585b08cdf8</div></td></tr><tr><td style="font-weight:bold;vertical-align:top;">session_id</td><td style="vertical-align:top;">:</td><td><div>127.0.0.1-d4500e52-711c-4c23-8e2b-9d0cfda5e93d</div></td></tr><tr><td style="font-weight:bold;vertical-align:top;">session_id_name</td><td style="vertical-align:top;">:</td><td><div>session_id_insider</div></td></tr><tr><td style="font-weight:bold;vertical-align:top;">session_locked</td><td style="vertical-align:top;">:</td><td><div>True</div></td></tr><tr><td style="font-weight:bold;vertical-align:top;">session_masterapp</td><td style="vertical-align:top;">:</td><td><div>insider</div></td></tr><tr><td style="font-weight:bold;vertical-align:top;">session_new</td><td style="vertical-align:top;">:</td><td><div>False</div></td></tr><tr><td style="font-weight:bold;vertical-align:top;">session_storage_type</td><td style="vertical-align:top;">:</td><td><div>file</div></td></tr><tr><td style="font-weight:bold;vertical-align:top;">status</td><td style="vertical-align:top;">:</td><td><div>200</div></td></tr><tr><td style="font-weight:bold;vertical-align:top;">title</td><td style="vertical-align:top;">:</td><td><div>Investment Insider</div></td></tr><tr><td style="font-weight:bold;vertical-align:top;">view</td><td style="vertical-align:top;">:</td><td><div>default/ticker.load</div></td></tr></table></div>'
tRp120
sS'locals'
p121
(dp122
S'Service'
p123
S"<class 'gluon.tools.Service'>"
p124
sS'OBJECT'
p125
S"<class 'gluon.html.OBJECT'>"
p126
sS'SQLDB'
p127
S"<class 'gluon.dal.DAL'>"
p128
sg113
S"<Storage {'_auth_next': '/insider/default/userpa...version': '35.0.1916.153', 'name': 'Chrome'}>}>}>"
p129
sS'LINK'
p130
S"<class 'gluon.html.LINK'>"
p131
sS'Auth'
p132
S"<class 'gluon.tools.Auth'>"
p133
sS'BR'
p134
S"<class 'gluon.html.BR'>"
p135
sS'local_import'
p136
S'<function <lambda>>'
p137
sS'OPTGROUP'
p138
S"<class 'gluon.html.OPTGROUP'>"
p139
sS'LI'
p140
S"<class 'gluon.html.LI'>"
p141
sS'get_chart'
p142
S'<function get_chart>'
p143
sS'PRE'
p144
S"<class 'gluon.html.PRE'>"
p145
sS'IS_INT_IN_RANGE'
p146
S"<class 'gluon.validators.IS_INT_IN_RANGE'>"
p147
sS'OUTLOOK'
p148
S"('bull (long)', 'bear (short)')"
p149
sS'IS_LOWER'
p150
S"<class 'gluon.validators.IS_LOWER'>"
p151
sS'IS_STRONG'
p152
S"<class 'gluon.validators.IS_STRONG'>"
p153
sS'cache'
p154
S'<gluon.cache.Cache object>'
p155
sS'IS_IN_DB'
p156
S"<class 'gluon.validators.IS_IN_DB'>"
p157
sS'TAG'
p158
S'<gluon.html.__TAG__ object>'
p159
sS'SQLField'
p160
S"<class 'gluon.dal.Field'>"
p161
sS'mail'
p162
S'<gluon.tools.Mail object>'
p163
sS'BODY'
p164
S"<class 'gluon.html.BODY'>"
p165
sS'IS_DATE_IN_RANGE'
p166
S"<class 'gluon.validators.IS_DATE_IN_RANGE'>"
p167
sS'get_stocks_nasdaq'
p168
S'<function get_stocks_nasdaq>'
p169
sS'TH'
p170
S"<class 'gluon.html.TH'>"
p171
sS'URL'
p172
S'<function URL>'
p173
sS'__file__'
p174
S"'/Applications/web2py.app/Contents/Resources/applications/insider/models/menu.py'"
p175
sS'db'
p176
S'<DAL uri="sqlite://storage.sqlite">'
p177
sS'auth'
p178
S'<gluon.tools.Auth object>'
p179
sS'P'
S"<class 'gluon.html.P'>"
p180
sS'TFOOT'
p181
S"<class 'gluon.html.TFOOT'>"
p182
sS'XHTML'
p183
S"<class 'gluon.html.XHTML'>"
p184
sS'datetime'
p185
S"<module 'datetime' from '/System/Library/Framewo...sions/2.7/lib/python2.7/lib-dynload/datetime.so'>"
p186
sS'realtime_updates'
p187
S'<function realtime_updates>'
p188
sS'ON'
p189
S'True'
p190
sS'OL'
p191
S"<class 'gluon.html.OL'>"
p192
sS'TEXTAREA'
p193
S"<class 'gluon.html.TEXTAREA'>"
p194
sS'MENU'
p195
S"<class 'gluon.html.MENU'>"
p196
sS'sort_counts'
p197
S'<function sort_counts>'
p198
sS'LOAD'
p199
S'<function LOAD>'
p200
sS'CODE'
p201
S"<class 'gluon.html.CODE'>"
p202
sS'HTTP'
p203
S"<class 'gluon.http.HTTP'>"
p204
sS'HR'
p205
S"<class 'gluon.html.HR'>"
p206
sS'IS_DATETIME'
p207
S"<class 'gluon.validators.IS_DATETIME'>"
p208
sS'HEAD'
p209
S"<class 'gluon.html.HEAD'>"
p210
sS'LABEL'
p211
S"<class 'gluon.html.LABEL'>"
p212
sS'CLEANUP'
p213
S"<class 'gluon.validators.CLEANUP'>"
p214
sS'plugins'
p215
S'<gluon.tools.PluginManager object>'
p216
sS'SELECT'
p217
S"<class 'gluon.html.SELECT'>"
p218
sS'use_janrain'
p219
S'<function use_janrain>'
p220
sS'CENTER'
p221
S"<class 'gluon.html.CENTER'>"
p222
sS'prettydate'
p223
S'<function prettydate>'
p224
sS'Crud'
p225
S"<class 'gluon.tools.Crud'>"
p226
sS'urllib'
p227
S"<module 'urllib' from '/System/Library/Framework...framework/Versions/2.7/lib/python2.7/urllib.pyc'>"
p228
sS'__builtins__'
p229
S"{'ArithmeticError': <type 'exceptions.ArithmeticError'>, 'AssertionError': <type 'exceptions.AssertionError'>, 'AttributeError': <type 'exceptions.AttributeError'>, 'BaseException': <type 'exceptions.BaseException'>, 'BufferError': <type 'exceptions.BufferError'>, 'BytesWarning': <type 'exceptions.BytesWarning'>, 'DeprecationWarning': <type 'exceptions.DeprecationWarning'>, 'EOFError': <type 'exceptions.EOFError'>, 'Ellipsis': Ellipsis, 'EnvironmentError': <type 'exceptions.EnvironmentError'>, ...}"
p230
sS'HTML'
p231
S"<class 'gluon.html.HTML'>"
p232
sS'SQLFORM'
p233
S"<class 'gluon.sqlhtml.SQLFORM'>"
p234
sS'EM'
p235
S"<class 'gluon.html.EM'>"
p236
sS'redirect'
p237
S'<function redirect>'
p238
sS'FIELDSET'
p239
S"<class 'gluon.html.FIELDSET'>"
p240
sS'IS_EQUAL_TO'
p241
S"<class 'gluon.validators.IS_EQUAL_TO'>"
p242
sS'embed64'
p243
S'<function embed64>'
p244
sS'IS_LIST_OF'
p245
S"<class 'gluon.validators.IS_LIST_OF'>"
p246
sS'__name__'
p247
S"'__restricted__'"
p248
sS'EMBED'
p249
S"<class 'gluon.html.EMBED'>"
p250
sS'FORM'
p251
S"<class 'gluon.html.FORM'>"
p252
sS'H6'
p253
S"<class 'gluon.html.H6'>"
p254
sS'H2'
p255
S"<class 'gluon.html.H2'>"
p256
sS'H3'
p257
S"<class 'gluon.html.H3'>"
p258
sS'BUTTON'
p259
S"<class 'gluon.html.BUTTON'>"
p260
sS'H1'
p261
S"<class 'gluon.html.H1'>"
p262
sS'split_string'
p263
S'<function split_string>'
p264
sS'H4'
p265
S"<class 'gluon.html.H4'>"
p266
sS'H5'
p267
S"<class 'gluon.html.H5'>"
p268
sS'UL'
p269
S"<class 'gluon.html.UL'>"
p270
sS'IS_UPPER'
p271
S"<class 'gluon.validators.IS_UPPER'>"
p272
sS'xmlescape'
p273
S'<function xmlescape>'
p274
sS'update_allstocksymbols'
p275
S'<function update_allstocksymbols>'
p276
sS'IS_TIME'
p277
S"<class 'gluon.validators.IS_TIME'>"
p278
sS'OPTION'
p279
S"<class 'gluon.html.OPTION'>"
p280
sS'TITLE'
p281
S"<class 'gluon.html.TITLE'>"
p282
sS'CRYPT'
p283
S"<class 'gluon.validators.CRYPT'>"
p284
sS'IS_EMPTY_OR'
p285
S"<class 'gluon.validators.IS_EMPTY_OR'>"
p286
sS'MARKMIN'
p287
S"<class 'gluon.html.MARKMIN'>"
p288
sS'get_allstocksymbols'
p289
S'<function get_allstocksymbols>'
p290
sS'INPUT'
p291
S"<class 'gluon.html.INPUT'>"
p292
sS'operator'
p293
S"<module 'operator' from '/System/Library/Framewo...sions/2.7/lib/python2.7/lib-dynload/operator.so'>"
p294
sS'STRONG'
p295
S"<class 'gluon.html.STRONG'>"
p296
sS'COL'
p297
S"<class 'gluon.html.COL'>"
p298
sS'service'
p299
S'<gluon.tools.Service object>'
p300
sS'SCRIPT'
p301
S"<class 'gluon.html.SCRIPT'>"
p302
sS'TABLE'
p303
S"<class 'gluon.html.TABLE'>"
p304
sS'IS_IPV4'
p305
S"<class 'gluon.validators.IS_IPV4'>"
p306
sS'IS_LENGTH'
p307
S"<class 'gluon.validators.IS_LENGTH'>"
p308
sS'IS_IPV6'
p309
S"<class 'gluon.validators.IS_IPV6'>"
p310
sS'XML'
p311
S"<class 'gluon.html.XML'>"
p312
sS'B'
S"<class 'gluon.html.B'>"
p313
sS'IMG'
p314
S"<class 'gluon.html.IMG'>"
p315
sS'SQLTABLE'
p316
S"<class 'gluon.sqlhtml.SQLTABLE'>"
p317
sS'IS_MATCH'
p318
S"<class 'gluon.validators.IS_MATCH'>"
p319
sS'IS_ALPHANUMERIC'
p320
S"<class 'gluon.validators.IS_ALPHANUMERIC'>"
p321
sS'SPAN'
p322
S"<class 'gluon.html.SPAN'>"
p323
sS'IS_JSON'
p324
S"<class 'gluon.validators.IS_JSON'>"
p325
sS'IS_IPADDRESS'
p326
S"<class 'gluon.validators.IS_IPADDRESS'>"
p327
sS'IS_SLUG'
p328
S"<class 'gluon.validators.IS_SLUG'>"
p329
sS'BEAUTIFY'
p330
S"<class 'gluon.html.BEAUTIFY'>"
p331
sS'META'
p332
S"<class 'gluon.html.META'>"
p333
sS'IS_DATE'
p334
S"<class 'gluon.validators.IS_DATE'>"
p335
sS'IS_EMAIL'
p336
S"<class 'gluon.validators.IS_EMAIL'>"
p337
sS'IS_NOT_EMPTY'
p338
S"<class 'gluon.validators.IS_NOT_EMPTY'>"
p339
sS'IS_FLOAT_IN_RANGE'
p340
S"<class 'gluon.validators.IS_FLOAT_IN_RANGE'>"
p341
sS'TBODY'
p342
S"<class 'gluon.html.TBODY'>"
p343
sS'CAT'
p344
S"<class 'gluon.html.CAT'>"
p345
sS'Field'
p346
S"<class 'gluon.dal.Field'>"
p347
sS'IS_LIST_OF_EMAILS'
p348
S"<class 'gluon.validators.IS_LIST_OF_EMAILS'>"
p349
sS'DIV'
p350
S"<class 'gluon.html.DIV'>"
p351
sS'LEGEND'
p352
S"<class 'gluon.html.LEGEND'>"
p353
sS'COLGROUP'
p354
S"<class 'gluon.html.COLGROUP'>"
p355
sS'DAL'
p356
S"<class 'gluon.dal.DAL'>"
p357
sS'TT'
p358
S"<class 'gluon.html.TT'>"
p359
sS'TR'
p360
S"<class 'gluon.html.TR'>"
p361
sS'__package__'
p362
S'None'
p363
sS'IFRAME'
p364
S"<class 'gluon.html.IFRAME'>"
p365
sS'TD'
p366
S"<class 'gluon.html.TD'>"
p367
sS'PluginManager'
p368
S"<class 'gluon.tools.PluginManager'>"
p369
sS'IS_URL'
p370
S"<class 'gluon.validators.IS_URL'>"
p371
sS'A'
S"<class 'gluon.html.A'>"
p372
sS'STYLE'
p373
S"<class 'gluon.html.STYLE'>"
p374
sS'IS_DATETIME_IN_RANGE'
p375
S"<class 'gluon.validators.IS_DATETIME_IN_RANGE'>"
p376
sS'IS_IMAGE'
p377
S"<class 'gluon.validators.IS_IMAGE'>"
p378
sS'I'
S"<class 'gluon.html.I'>"
p379
sS'crud'
p380
S'<gluon.tools.Crud object>'
p381
sS'update'
p382
S'<function update>'
p383
sS'IS_NOT_IN_DB'
p384
S"<class 'gluon.validators.IS_NOT_IN_DB'>"
p385
sS'run_all_updates'
p386
S'<function run_all_updates>'
p387
sg119
S"<Storage {'body': <cStringIO.StringO object at 0... at 0x111f60938>, 'view': 'default/ticker.load'}>"
p388
sS'THEAD'
p389
S"<class 'gluon.html.THEAD'>"
p390
sS'ANY_OF'
p391
S"<class 'gluon.validators.ANY_OF'>"
p392
sS'IS_NULL_OR'
p393
S"<class 'gluon.validators.IS_EMPTY_OR'>"
p394
sg56
S"<Storage {'_vars': None, 'function': 'ticker', '...y.app/Contents/Resources/applications/insider/'}>"
p395
sS'IS_EXPR'
p396
S"<class 'gluon.validators.IS_EXPR'>"
p397
sS'RPXAccount'
p398
S"<class 'gluon.contrib.login_methods.rpx_account.RPXAccount'>"
p399
sS'IS_IN_SET'
p400
S"<class 'gluon.validators.IS_IN_SET'>"
p401
sS'IS_UPLOAD_FILENAME'
p402
S"<class 'gluon.validators.IS_UPLOAD_FILENAME'>"
p403
sS'IS_DECIMAL_IN_RANGE'
p404
S"<class 'gluon.validators.IS_DECIMAL_IN_RANGE'>"
p405
sS'T'
S'<gluon.languages.translator object>'
p406
sssS'traceback'
p407
S'Traceback (most recent call last):\n  File "/Applications/web2py.app/Contents/Resources/gluon/restricted.py", line 220, in restricted\n    exec ccode in environment\n  File "/Applications/web2py.app/Contents/Resources/applications/insider/models/menu.py", line 10, in <module>\n    response.subtitle = get_dateday(request.now)\nNameError: name \'get_dateday\' is not defined\n'
p408
s.